; Function Attrs: mustprogress nofree norecurse nosync nounwind memory(readwrite, inaccessiblemem: none) uwtable
define hidden void @_ZN7Compile16sort_macro_nodesEv(ptr nocapture noundef nonnull readonly align 8 dereferenceable(2316) %0) local_unnamed_addr #2 align 2 {
  %2 = getelementptr inbounds i8, ptr %0, i64 416
  %3 = load i32, ptr %2, align 8
  %4 = icmp sgt i32 %3, 0
  br i1 %4, label %.lr.ph, label %._crit_edge

.lr.ph:                                           ; preds = %1
  %5 = getelementptr inbounds i8, ptr %0, i64 424
  %wide.trip.count = zext nneg i32 %3 to i64
  br label %6

6:                                                ; preds = %.lr.ph, %24
  %indvars.iv = phi i64 [ 0, %.lr.ph ], [ %indvars.iv.next, %24 ]
  %.01012 = phi i32 [ 0, %.lr.ph ], [ %.1, %24 ]
  %7 = load ptr, ptr %5, align 8
  %8 = getelementptr inbounds ptr, ptr %7, i64 %indvars.iv
  %9 = load ptr, ptr %8, align 8
  %10 = getelementptr inbounds i8, ptr %9, i64 44
  %11 = load i32, ptr %10, align 4
  %12 = and i32 %11, 63
  %13 = icmp eq i32 %12, 39
  br i1 %13, label %14, label %24

14:                                               ; preds = %6
  %15 = zext i32 %.01012 to i64
  %.not = icmp eq i64 %indvars.iv, %15
  br i1 %.not, label %22, label %16

16:                                               ; preds = %14
  %17 = sext i32 %.01012 to i64
  %18 = getelementptr inbounds ptr, ptr %7, i64 %17
  %19 = load ptr, ptr %18, align 8
  store ptr %9, ptr %18, align 8
  %20 = load ptr, ptr %5, align 8
  %21 = getelementptr inbounds ptr, ptr %20, i64 %indvars.iv
  store ptr %19, ptr %21, align 8
  br label %22

22:                                               ; preds = %16, %14
  %23 = add nsw i32 %.01012, 1
  br label %24

24:                                               ; preds = %6, %22
  %.1 = phi i32 [ %23, %22 ], [ %.01012, %6 ]
  %indvars.iv.next = add nuw nsw i64 %indvars.iv, 1
  %exitcond.not = icmp eq i64 %indvars.iv.next, %wide.trip.count
  br i1 %exitcond.not, label %._crit_edge, label %6, !llvm.loop !103

._crit_edge:                                      ; preds = %24, %1
  ret void
}